; Function Attrs: mustprogress nounwind uwtable
define dso_local noundef ptr @_Z14getTLIFunctionPN4llvm6ModuleEPNS_12FunctionTypeENS_9StringRefEPNS_8FunctionE(ptr noundef nonnull %0, ptr noundef %1, ptr %2, i64 %3, ptr noundef %4) local_unnamed_addr #0 {
  %6 = alloca %"class.llvm::Twine", align 8
  %7 = alloca [1 x ptr], align 8
  %8 = tail call noundef ptr @_ZNK4llvm6Module11getFunctionENS_9StringRefE(ptr noundef nonnull align 8 dereferenceable(857) %0, ptr %2, i64 %3) #12
  %.not = icmp eq ptr %8, null
  br i1 %.not, label %9, label %16

9:                                                ; preds = %5
  %10 = getelementptr inbounds nuw i8, ptr %6, i64 32
  store i8 5, ptr %10, align 8
  %11 = getelementptr inbounds nuw i8, ptr %6, i64 33
  store i8 1, ptr %11, align 1
  store ptr %2, ptr %6, align 8
  %12 = getelementptr inbounds nuw i8, ptr %6, i64 8
  store i64 %3, ptr %12, align 8
  %13 = call noundef ptr @_ZN4llvm8Function6CreateEPNS_12FunctionTypeENS_11GlobalValue12LinkageTypesERKNS_5TwineERNS_6ModuleE(ptr noundef %1, i32 noundef 0, ptr noundef nonnull align 8 dereferenceable(34) %6, ptr noundef nonnull align 8 dereferenceable(857) %0) #12
  %.not12 = icmp eq ptr %4, null
  br i1 %.not12, label %15, label %14

14:                                               ; preds = %9
  call void @_ZN4llvm8Function18copyAttributesFromEPKS0_(ptr noundef nonnull align 8 dereferenceable(136) %13, ptr noundef nonnull %4) #12
  br label %15

15:                                               ; preds = %14, %9
  store ptr %13, ptr %7, align 8
  call void @_ZN4llvm20appendToCompilerUsedERNS_6ModuleENS_8ArrayRefIPNS_11GlobalValueEEE(ptr noundef nonnull align 8 dereferenceable(857) %0, ptr nonnull %7, i64 1) #12
  br label %16

16:                                               ; preds = %15, %5
  %.0 = phi ptr [ %8, %5 ], [ %13, %15 ]
  ret ptr %.0
}